(dp1
S'test_plugin'
p2
ccopy_reg
_reconstructor
p3
(ctwisted.plugin
CachedDropin
p4
c__builtin__
object
p5
NtRp6
(dp7
S'moduleName'
p8
S'twisted.plugins.test_plugin'
p9
sS'description'
p10
S'An interactive Python interpreter with syntax coloring.\n\nNothing interesting is actually defined here.  Two listening ports are\nset up and attached to protocols which know how to properly set up a\nColoredManhole instance.\n'
p11
sS'plugins'
p12
(lp13
g3
(ctwisted.plugin
CachedPlugin
p14
g5
NtRp15
(dp16
S'provided'
p17
(lp18
ctwisted.application.service
IServiceMaker
p19
actwisted.plugin
IPlugin
p20
asS'dropin'
p21
g6
sS'name'
p22
S'service_maker'
p23
sg10
NsbasbsS'jasmin_plugin'
p24
g3
(g4
g5
NtRp25
(dp26
g8
S'twisted.plugins.jasmin_plugin'
p27
sg10
Nsg12
(lp28
g3
(g14
g5
NtRp29
(dp30
g17
(lp31
g19
ag20
asg21
g25
sg22
S'service_maker'
p32
sg10
Nsbasbs.